; ModuleID = '22/407.c'
source_filename = "22/407.c"
target datalayout = "e-m:e-p270:32:32-p271:32:32-p272:64:64-i64:64-f80:128-n8:16:32:64-S128"
target triple = "x86_64-pc-linux-gnu"

@.str = private unnamed_addr constant [5 x i8] c"%d%c\00", align 1
@.str.1 = private unnamed_addr constant [4 x i8] c"No\0A\00", align 1
@.str.2 = private unnamed_addr constant [4 x i8] c"%d\0A\00", align 1

; Function Attrs: noinline nounwind uwtable
define dso_local void @main() #0 {
  %1 = alloca i32, align 4
  %2 = alloca i32, align 4
  %3 = alloca i32, align 4
  %4 = alloca i32, align 4
  %5 = alloca [300 x i32], align 16
  %6 = alloca i8, align 1
  store i32 -1, i32* %1, align 4
  store i32 -1, i32* %2, align 4
  store i32 0, i32* %3, align 4
  br label %7

7:                                                ; preds = %21, %0
  %8 = load i32, i32* %3, align 4
  %9 = icmp slt i32 %8, 300
  br i1 %9, label %10, label %24

10:                                               ; preds = %7
  %11 = load i32, i32* %3, align 4
  %12 = sext i32 %11 to i64
  %13 = getelementptr inbounds [300 x i32], [300 x i32]* %5, i64 0, i64 %12
  %14 = call i32 (i8*, ...) @__isoc99_scanf(i8* getelementptr inbounds ([5 x i8], [5 x i8]* @.str, i64 0, i64 0), i32* %13, i8* %6)
  %15 = load i8, i8* %6, align 1
  %16 = sext i8 %15 to i32
  %17 = icmp ne i32 %16, 44
  br i1 %17, label %18, label %20

18:                                               ; preds = %10
  %19 = load i32, i32* %3, align 4
  store i32 %19, i32* %4, align 4
  br label %24

20:                                               ; preds = %10
  br label %21

21:                                               ; preds = %20
  %22 = load i32, i32* %3, align 4
  %23 = add nsw i32 %22, 1
  store i32 %23, i32* %3, align 4
  br label %7

24:                                               ; preds = %18, %7
  store i32 0, i32* %3, align 4
  br label %25

25:                                               ; preds = %42, %24
  %26 = load i32, i32* %3, align 4
  %27 = load i32, i32* %4, align 4
  %28 = icmp sle i32 %26, %27
  br i1 %28, label %29, label %45

29:                                               ; preds = %25
  %30 = load i32, i32* %3, align 4
  %31 = sext i32 %30 to i64
  %32 = getelementptr inbounds [300 x i32], [300 x i32]* %5, i64 0, i64 %31
  %33 = load i32, i32* %32, align 4
  %34 = load i32, i32* %1, align 4
  %35 = icmp sgt i32 %33, %34
  br i1 %35, label %36, label %41

36:                                               ; preds = %29
  %37 = load i32, i32* %3, align 4
  %38 = sext i32 %37 to i64
  %39 = getelementptr inbounds [300 x i32], [300 x i32]* %5, i64 0, i64 %38
  %40 = load i32, i32* %39, align 4
  store i32 %40, i32* %1, align 4
  br label %41

41:                                               ; preds = %36, %29
  br label %42

42:                                               ; preds = %41
  %43 = load i32, i32* %3, align 4
  %44 = add nsw i32 %43, 1
  store i32 %44, i32* %3, align 4
  br label %25

45:                                               ; preds = %25
  store i32 0, i32* %3, align 4
  br label %46

46:                                               ; preds = %70, %45
  %47 = load i32, i32* %3, align 4
  %48 = load i32, i32* %4, align 4
  %49 = icmp sle i32 %47, %48
  br i1 %49, label %50, label %73

50:                                               ; preds = %46
  %51 = load i32, i32* %3, align 4
  %52 = sext i32 %51 to i64
  %53 = getelementptr inbounds [300 x i32], [300 x i32]* %5, i64 0, i64 %52
  %54 = load i32, i32* %53, align 4
  %55 = load i32, i32* %1, align 4
  %56 = icmp slt i32 %54, %55
  br i1 %56, label %57, label %69

57:                                               ; preds = %50
  %58 = load i32, i32* %3, align 4
  %59 = sext i32 %58 to i64
  %60 = getelementptr inbounds [300 x i32], [300 x i32]* %5, i64 0, i64 %59
  %61 = load i32, i32* %60, align 4
  %62 = load i32, i32* %2, align 4
  %63 = icmp sgt i32 %61, %62
  br i1 %63, label %64, label %69

64:                                               ; preds = %57
  %65 = load i32, i32* %3, align 4
  %66 = sext i32 %65 to i64
  %67 = getelementptr inbounds [300 x i32], [300 x i32]* %5, i64 0, i64 %66
  %68 = load i32, i32* %67, align 4
  store i32 %68, i32* %2, align 4
  br label %69

69:                                               ; preds = %64, %57, %50
  br label %70

70:                                               ; preds = %69
  %71 = load i32, i32* %3, align 4
  %72 = add nsw i32 %71, 1
  store i32 %72, i32* %3, align 4
  br label %46

73:                                               ; preds = %46
  %74 = load i32, i32* %2, align 4
  %75 = icmp eq i32 %74, -1
  br i1 %75, label %76, label %78

76:                                               ; preds = %73
  %77 = call i32 (i8*, ...) @printf(i8* getelementptr inbounds ([4 x i8], [4 x i8]* @.str.1, i64 0, i64 0))
  br label %81

78:                                               ; preds = %73
  %79 = load i32, i32* %2, align 4
  %80 = call i32 (i8*, ...) @printf(i8* getelementptr inbounds ([4 x i8], [4 x i8]* @.str.2, i64 0, i64 0), i32 %79)
  br label %81

81:                                               ; preds = %78, %76
  ret void
}

declare dso_local i32 @__isoc99_scanf(i8*, ...) #1

declare dso_local i32 @printf(i8*, ...) #1


!llvm.module.flags = !{!0}
!llvm.ident = !{!1}

!0 = !{i32 1, !"wchar_size", i32 4}
!1 = !{!"clang version 10.0.0-4ubuntu1 "}
